target datalayout = "e-m:e-p270:32:32-p271:32:32-p272:64:64-i64:64-i128:128-f80:128-n8:16:32:64-S128"
target triple = "x86_64-pc-linux-gnu"

%struct.ML_KEM_VINFO = type { ptr, i64, i64, i64, i64, i64, i64, i64, i32, i32, i32, i32, i32, i32 }
%struct.ossl_ml_kem_key_st = type { ptr, ptr, ptr, ptr, ptr, ptr, ptr, ptr, ptr, ptr, ptr, ptr, ptr, i32, i32, [64 x i8], ptr }
%struct.ossl_ml_kem_scalar_st = type { [256 x i16] }

; Function Attrs: nounwind uwtable
define i32 @ossl_ml_kem_decap(ptr noundef %0, i64 noundef %1, ptr noundef %2, i64 noundef %3, ptr noundef %4) #0 {
  %6 = alloca i32, align 4
  %7 = alloca ptr, align 8
  %8 = alloca i64, align 8
  %9 = alloca ptr, align 8
  %10 = alloca i64, align 8
  %11 = alloca ptr, align 8
  %12 = alloca ptr, align 8
  %13 = alloca ptr, align 8
  %14 = alloca i32, align 4
  %15 = alloca i32, align 4
  %16 = alloca [768 x i8], align 16
  %17 = alloca [4 x %struct.ossl_ml_kem_scalar_st], align 16
  %18 = alloca [1088 x i8], align 16
  %19 = alloca [6 x %struct.ossl_ml_kem_scalar_st], align 16
  %20 = alloca [1568 x i8], align 16
  %21 = alloca [8 x %struct.ossl_ml_kem_scalar_st], align 16
  store ptr %0, ptr %7, align 8, !tbaa !25
  store i64 %1, ptr %8, align 8, !tbaa !42
  store ptr %2, ptr %9, align 8, !tbaa !25
  store i64 %3, ptr %10, align 8, !tbaa !42
  store ptr %4, ptr %11, align 8, !tbaa !3
  call void @llvm.lifetime.start.p0(i64 8, ptr %12) #8
  call void @llvm.lifetime.start.p0(i64 8, ptr %13) #8
  call void @llvm.lifetime.start.p0(i64 4, ptr %14) #8
  store i32 0, ptr %14, align 4, !tbaa !23
  %22 = load ptr, ptr %11, align 8, !tbaa !3
  %23 = getelementptr inbounds nuw %struct.ossl_ml_kem_key_st, ptr %22, i32 0, i32 10
  %24 = load ptr, ptr %23, align 8, !tbaa !15
  %25 = icmp ne ptr %24, null
  br i1 %25, label %27, label %26

26:                                               ; preds = %5
  store i32 0, ptr %6, align 4
  store i32 1, ptr %15, align 4
  br label %91

27:                                               ; preds = %5
  %28 = load ptr, ptr %11, align 8, !tbaa !3
  %29 = getelementptr inbounds nuw %struct.ossl_ml_kem_key_st, ptr %28, i32 0, i32 0
  %30 = load ptr, ptr %29, align 8, !tbaa !16
  store ptr %30, ptr %12, align 8, !tbaa !26
  %31 = load ptr, ptr %7, align 8, !tbaa !25
  %32 = icmp eq ptr %31, null
  br i1 %32, label %48, label %33

33:                                               ; preds = %27
  %34 = load i64, ptr %8, align 8, !tbaa !42
  %35 = icmp ne i64 %34, 32
  br i1 %35, label %48, label %36

36:                                               ; preds = %33
  %37 = load ptr, ptr %9, align 8, !tbaa !25
  %38 = icmp eq ptr %37, null
  br i1 %38, label %48, label %39

39:                                               ; preds = %36
  %40 = load i64, ptr %10, align 8, !tbaa !42
  %41 = load ptr, ptr %12, align 8, !tbaa !26
  %42 = getelementptr inbounds nuw %struct.ML_KEM_VINFO, ptr %41, i32 0, i32 5
  %43 = load i64, ptr %42, align 8, !tbaa !49
  %44 = icmp ne i64 %40, %43
  br i1 %44, label %48, label %45

45:                                               ; preds = %39
  %46 = call ptr @EVP_MD_CTX_new()
  store ptr %46, ptr %13, align 8, !tbaa !44
  %47 = icmp eq ptr %46, null
  br i1 %47, label %48, label %57

48:                                               ; preds = %45, %39, %36, %33, %27
  %49 = load ptr, ptr %11, align 8, !tbaa !3
  %50 = getelementptr inbounds nuw %struct.ossl_ml_kem_key_st, ptr %49, i32 0, i32 1
  %51 = load ptr, ptr %50, align 8, !tbaa !27
  %52 = load ptr, ptr %7, align 8, !tbaa !25
  %53 = load ptr, ptr %12, align 8, !tbaa !26
  %54 = getelementptr inbounds nuw %struct.ML_KEM_VINFO, ptr %53, i32 0, i32 13
  %55 = load i32, ptr %54, align 4, !tbaa !46
  %56 = call i32 @RAND_bytes_ex(ptr noundef %51, ptr noundef %52, i64 noundef 32, i32 noundef %55)
  store i32 0, ptr %6, align 4
  store i32 1, ptr %15, align 4
  br label %91

57:                                               ; preds = %45
  %58 = load ptr, ptr %12, align 8, !tbaa !26
  %59 = getelementptr inbounds nuw %struct.ML_KEM_VINFO, ptr %58, i32 0, i32 8
  %60 = load i32, ptr %59, align 8, !tbaa !47
  switch i32 %60, label %88 [
    i32 1454, label %61
    i32 1455, label %70
    i32 1456, label %79
  ]

61:                                               ; preds = %57
  call void @llvm.lifetime.start.p0(i64 768, ptr %16) #8
  call void @llvm.lifetime.start.p0(i64 2048, ptr %17) #8
  %62 = load ptr, ptr %7, align 8, !tbaa !25
  %63 = load ptr, ptr %9, align 8, !tbaa !25
  %64 = getelementptr inbounds [768 x i8], ptr %16, i64 0, i64 0
  %65 = getelementptr inbounds [4 x %struct.ossl_ml_kem_scalar_st], ptr %17, i64 0, i64 0
  %66 = load ptr, ptr %13, align 8, !tbaa !44
  %67 = load ptr, ptr %11, align 8, !tbaa !3
  %68 = call i32 @decap(ptr noundef %62, ptr noundef %63, ptr noundef %64, ptr noundef %65, ptr noundef %66, ptr noundef %67)
  store i32 %68, ptr %14, align 4, !tbaa !23
  %69 = getelementptr inbounds [4 x %struct.ossl_ml_kem_scalar_st], ptr %17, i64 0, i64 0
  call void @OPENSSL_cleanse(ptr noundef %69, i64 noundef 2048)
  store i32 2, ptr %15, align 4
  call void @llvm.lifetime.end.p0(i64 2048, ptr %17) #8
  call void @llvm.lifetime.end.p0(i64 768, ptr %16) #8
  br label %88

70:                                               ; preds = %57
  call void @llvm.lifetime.start.p0(i64 1088, ptr %18) #8
  call void @llvm.lifetime.start.p0(i64 3072, ptr %19) #8
  %71 = load ptr, ptr %7, align 8, !tbaa !25
  %72 = load ptr, ptr %9, align 8, !tbaa !25
  %73 = getelementptr inbounds [1088 x i8], ptr %18, i64 0, i64 0
  %74 = getelementptr inbounds [6 x %struct.ossl_ml_kem_scalar_st], ptr %19, i64 0, i64 0
  %75 = load ptr, ptr %13, align 8, !tbaa !44
  %76 = load ptr, ptr %11, align 8, !tbaa !3
  %77 = call i32 @decap(ptr noundef %71, ptr noundef %72, ptr noundef %73, ptr noundef %74, ptr noundef %75, ptr noundef %76)
  store i32 %77, ptr %14, align 4, !tbaa !23
  %78 = getelementptr inbounds [6 x %struct.ossl_ml_kem_scalar_st], ptr %19, i64 0, i64 0
  call void @OPENSSL_cleanse(ptr noundef %78, i64 noundef 3072)
  store i32 2, ptr %15, align 4
  call void @llvm.lifetime.end.p0(i64 3072, ptr %19) #8
  call void @llvm.lifetime.end.p0(i64 1088, ptr %18) #8
  br label %88

79:                                               ; preds = %57
  call void @llvm.lifetime.start.p0(i64 1568, ptr %20) #8
  call void @llvm.lifetime.start.p0(i64 4096, ptr %21) #8
  %80 = load ptr, ptr %7, align 8, !tbaa !25
  %81 = load ptr, ptr %9, align 8, !tbaa !25
  %82 = getelementptr inbounds [1568 x i8], ptr %20, i64 0, i64 0
  %83 = getelementptr inbounds [8 x %struct.ossl_ml_kem_scalar_st], ptr %21, i64 0, i64 0
  %84 = load ptr, ptr %13, align 8, !tbaa !44
  %85 = load ptr, ptr %11, align 8, !tbaa !3
  %86 = call i32 @decap(ptr noundef %80, ptr noundef %81, ptr noundef %82, ptr noundef %83, ptr noundef %84, ptr noundef %85)
  store i32 %86, ptr %14, align 4, !tbaa !23
  %87 = getelementptr inbounds [8 x %struct.ossl_ml_kem_scalar_st], ptr %21, i64 0, i64 0
  call void @OPENSSL_cleanse(ptr noundef %87, i64 noundef 4096)
  store i32 2, ptr %15, align 4
  call void @llvm.lifetime.end.p0(i64 4096, ptr %21) #8
  call void @llvm.lifetime.end.p0(i64 1568, ptr %20) #8
  br label %88

88:                                               ; preds = %57, %79, %70, %61
  %89 = load ptr, ptr %13, align 8, !tbaa !44
  call void @EVP_MD_CTX_free(ptr noundef %89)
  %90 = load i32, ptr %14, align 4, !tbaa !23
  store i32 %90, ptr %6, align 4
  store i32 1, ptr %15, align 4
  br label %91

91:                                               ; preds = %88, %48, %26
  call void @llvm.lifetime.end.p0(i64 4, ptr %14) #8
  call void @llvm.lifetime.end.p0(i64 8, ptr %13) #8
  call void @llvm.lifetime.end.p0(i64 8, ptr %12) #8
  %92 = load i32, ptr %6, align 4
  ret i32 %92
}