; Function Attrs: nounwind uwtable
define range(i32 0, 2) i32 @ossl_ml_kem_decap(ptr noundef %0, i64 noundef %1, ptr noundef %2, i64 noundef %3, ptr noundef %4) local_unnamed_addr #0 {
  %6 = alloca [768 x i8], align 16
  %7 = alloca [4 x %struct.ossl_ml_kem_scalar_st], align 16
  %8 = alloca [1088 x i8], align 16
  %9 = alloca [6 x %struct.ossl_ml_kem_scalar_st], align 16
  %10 = alloca [1568 x i8], align 16
  %11 = alloca [8 x %struct.ossl_ml_kem_scalar_st], align 16
  %12 = getelementptr inbounds nuw i8, ptr %4, i64 80
  %13 = load ptr, ptr %12, align 8, !tbaa !13
  %.not = icmp eq ptr %13, null
  br i1 %.not, label %41, label %14

14:                                               ; preds = %5
  %15 = load ptr, ptr %4, align 8, !tbaa !14
  %16 = icmp eq ptr %0, null
  %17 = icmp ne i64 %1, 32
  %or.cond = or i1 %16, %17
  %18 = icmp eq ptr %2, null
  %or.cond3 = or i1 %or.cond, %18
  br i1 %or.cond3, label %25, label %19

19:                                               ; preds = %14
  %20 = getelementptr inbounds nuw i8, ptr %15, i64 40
  %21 = load i64, ptr %20, align 8, !tbaa !55
  %.not32 = icmp eq i64 %3, %21
  br i1 %.not32, label %22, label %25

22:                                               ; preds = %19
  %23 = tail call ptr @EVP_MD_CTX_new() #13
  %24 = icmp eq ptr %23, null
  br i1 %24, label %25, label %31

25:                                               ; preds = %22, %19, %14
  %26 = getelementptr inbounds nuw i8, ptr %4, i64 8
  %27 = load ptr, ptr %26, align 8, !tbaa !18
  %28 = getelementptr inbounds nuw i8, ptr %15, i64 84
  %29 = load i32, ptr %28, align 4, !tbaa !44
  %30 = tail call i32 @RAND_bytes_ex(ptr noundef %27, ptr noundef %0, i64 noundef 32, i32 noundef %29) #13
  br label %41

31:                                               ; preds = %22
  %32 = getelementptr inbounds nuw i8, ptr %15, i64 64
  %33 = load i32, ptr %32, align 8, !tbaa !45
  switch i32 %33, label %40 [
    i32 1454, label %34
    i32 1455, label %36
    i32 1456, label %38
  ]

34:                                               ; preds = %31
  call void @llvm.lifetime.start.p0(i64 768, ptr nonnull %6) #13
  call void @llvm.lifetime.start.p0(i64 2048, ptr nonnull %7) #13
  %35 = call fastcc i32 @decap(ptr noundef %0, ptr noundef %2, ptr noundef %6, ptr noundef %7, ptr noundef %23, ptr noundef nonnull %4)
  call void @OPENSSL_cleanse(ptr noundef nonnull %7, i64 noundef 2048) #13
  call void @llvm.lifetime.end.p0(i64 2048, ptr nonnull %7) #13
  call void @llvm.lifetime.end.p0(i64 768, ptr nonnull %6) #13
  br label %40

36:                                               ; preds = %31
  call void @llvm.lifetime.start.p0(i64 1088, ptr nonnull %8) #13
  call void @llvm.lifetime.start.p0(i64 3072, ptr nonnull %9) #13
  %37 = call fastcc i32 @decap(ptr noundef %0, ptr noundef %2, ptr noundef %8, ptr noundef %9, ptr noundef %23, ptr noundef nonnull %4)
  call void @OPENSSL_cleanse(ptr noundef nonnull %9, i64 noundef 3072) #13
  call void @llvm.lifetime.end.p0(i64 3072, ptr nonnull %9) #13
  call void @llvm.lifetime.end.p0(i64 1088, ptr nonnull %8) #13
  br label %40

38:                                               ; preds = %31
  call void @llvm.lifetime.start.p0(i64 1568, ptr nonnull %10) #13
  call void @llvm.lifetime.start.p0(i64 4096, ptr nonnull %11) #13
  %39 = call fastcc i32 @decap(ptr noundef %0, ptr noundef %2, ptr noundef %10, ptr noundef %11, ptr noundef %23, ptr noundef nonnull %4)
  call void @OPENSSL_cleanse(ptr noundef nonnull %11, i64 noundef 4096) #13
  call void @llvm.lifetime.end.p0(i64 4096, ptr nonnull %11) #13
  call void @llvm.lifetime.end.p0(i64 1568, ptr nonnull %10) #13
  br label %40

40:                                               ; preds = %38, %36, %34, %31
  %.0 = phi i32 [ 0, %31 ], [ %39, %38 ], [ %37, %36 ], [ %35, %34 ]
  call void @EVP_MD_CTX_free(ptr noundef nonnull %23) #13
  br label %41

41:                                               ; preds = %5, %40, %25
  %.028 = phi i32 [ 0, %25 ], [ %.0, %40 ], [ 0, %5 ]
  ret i32 %.028
}